target datalayout = "e-m:e-p270:32:32-p271:32:32-p272:64:64-i64:64-i128:128-f80:128-n8:16:32:64-S128"
target triple = "x86_64-pc-linux-gnu"

%struct._typeobject = type { %struct.PyVarObject, ptr, i64, i64, ptr, i64, ptr, ptr, ptr, ptr, ptr, ptr, ptr, ptr, ptr, ptr, ptr, ptr, ptr, i64, ptr, ptr, ptr, ptr, i64, ptr, ptr, ptr, ptr, ptr, ptr, ptr, ptr, ptr, i64, ptr, ptr, ptr, ptr, ptr, ptr, ptr, ptr, ptr, ptr, ptr, i32, ptr, ptr, i8, i16 }
%struct.PyVarObject = type { %struct._object, i64 }
%struct._object = type { %union.anon, ptr }
%union.anon = type { i64 }
%struct.anon = type { i32, i32 }
%struct.PyTupleObject = type { %struct.PyVarObject, [1 x ptr] }
%struct.constevaluatorobject = type { %struct._object, ptr }

@.str.23 = private unnamed_addr constant [24 x i8] c"constevaluator.__call__\00", align 1
@.str.24 = private unnamed_addr constant [26 x i8] c"i:constevaluator.__call__\00", align 1
@.str.25 = private unnamed_addr constant [3 x i8] c", \00", align 1

; Function Attrs: alwaysinline nounwind uwtable
define internal void @Py_INCREF(ptr noundef %0) #4 {
  %2 = alloca ptr, align 8
  %3 = alloca i32, align 4
  %4 = alloca i32, align 4
  store ptr %0, ptr %2, align 8, !tbaa !4
  call void @llvm.lifetime.start.p0(i64 4, ptr %3) #6
  %5 = load ptr, ptr %2, align 8, !tbaa !4
  %6 = getelementptr inbounds nuw %struct._object, ptr %5, i32 0, i32 0
  %7 = getelementptr inbounds nuw %struct.anon, ptr %6, i32 0, i32 0
  %8 = load i32, ptr %7, align 8, !tbaa !27
  store i32 %8, ptr %3, align 4, !tbaa !13
  %9 = load i32, ptr %3, align 4, !tbaa !13
  %10 = icmp slt i32 %9, 0
  br i1 %10, label %11, label %12

11:                                               ; preds = %1
  store i32 1, ptr %4, align 4
  br label %18

12:                                               ; preds = %1
  %13 = load i32, ptr %3, align 4, !tbaa !13
  %14 = add i32 %13, 1
  %15 = load ptr, ptr %2, align 8, !tbaa !4
  %16 = getelementptr inbounds nuw %struct._object, ptr %15, i32 0, i32 0
  %17 = getelementptr inbounds nuw %struct.anon, ptr %16, i32 0, i32 0
  store i32 %14, ptr %17, align 8, !tbaa !27
  store i32 0, ptr %4, align 4
  br label %18

18:                                               ; preds = %12, %11
  call void @llvm.lifetime.end.p0(i64 4, ptr %3) #6
  %19 = load i32, ptr %4, align 4
  switch i32 %19, label %21 [
    i32 0, label %20
    i32 1, label %20
  ]

20:                                               ; preds = %18, %18
  ret void

21:                                               ; preds = %18
  unreachable
}

; Function Attrs: inlinehint nounwind uwtable
define internal i64 @Py_SIZE(ptr noundef %0) #3 {
  %2 = alloca ptr, align 8
  store ptr %0, ptr %2, align 8, !tbaa !4
  %3 = load ptr, ptr %2, align 8, !tbaa !4
  %4 = getelementptr inbounds nuw %struct.PyVarObject, ptr %3, i32 0, i32 1
  %5 = load i64, ptr %4, align 8, !tbaa !159
  ret i64 %5
}

; Function Attrs: inlinehint nounwind uwtable
define internal ptr @_Py_NewRef(ptr noundef %0) #3 {
  %2 = alloca ptr, align 8
  store ptr %0, ptr %2, align 8, !tbaa !4
  %3 = load ptr, ptr %2, align 8, !tbaa !4
  call void @Py_INCREF(ptr noundef %3)
  %4 = load ptr, ptr %2, align 8, !tbaa !4
  ret ptr %4
}

; Function Attrs: inlinehint nounwind uwtable
define internal i64 @PyTuple_GET_SIZE(ptr noundef %0) #3 {
  %2 = alloca ptr, align 8
  %3 = alloca ptr, align 8
  store ptr %0, ptr %2, align 8, !tbaa !4
  call void @llvm.lifetime.start.p0(i64 8, ptr %3) #6
  %4 = load ptr, ptr %2, align 8, !tbaa !4
  store ptr %4, ptr %3, align 8, !tbaa !30
  %5 = load ptr, ptr %3, align 8, !tbaa !30
  %6 = call i64 @Py_SIZE(ptr noundef %5)
  call void @llvm.lifetime.end.p0(i64 8, ptr %3) #6
  ret i64 %6
}

; Function Attrs: inlinehint nounwind uwtable
define internal i32 @PyType_HasFeature(ptr noundef %0, i64 noundef %1) #3 {
  %3 = alloca ptr, align 8
  %4 = alloca i64, align 8
  %5 = alloca i64, align 8
  store ptr %0, ptr %3, align 8, !tbaa !9
  store i64 %1, ptr %4, align 8, !tbaa !15
  call void @llvm.lifetime.start.p0(i64 8, ptr %5) #6
  %6 = load ptr, ptr %3, align 8, !tbaa !9
  %7 = getelementptr inbounds nuw %struct._typeobject, ptr %6, i32 0, i32 19
  %8 = load i64, ptr %7, align 8, !tbaa !17
  store i64 %8, ptr %5, align 8, !tbaa !15
  %9 = load i64, ptr %5, align 8, !tbaa !15
  %10 = load i64, ptr %4, align 8, !tbaa !15
  %11 = and i64 %9, %10
  %12 = icmp ne i64 %11, 0
  %13 = zext i1 %12 to i32
  call void @llvm.lifetime.end.p0(i64 8, ptr %5) #6
  ret i32 %13
}

; Function Attrs: inlinehint nounwind uwtable
define internal ptr @_Py_TYPE(ptr noundef %0) #3 {
  %2 = alloca ptr, align 8
  store ptr %0, ptr %2, align 8, !tbaa !4
  %3 = load ptr, ptr %2, align 8, !tbaa !4
  %4 = getelementptr inbounds nuw %struct._object, ptr %3, i32 0, i32 1
  %5 = load ptr, ptr %4, align 8, !tbaa !26
  ret ptr %5
}

; Function Attrs: nounwind uwtable
define internal ptr @constevaluator_call(ptr noundef %0, ptr noundef %1, ptr noundef %2) #0 {
  %4 = alloca ptr, align 8
  %5 = alloca ptr, align 8
  %6 = alloca ptr, align 8
  %7 = alloca ptr, align 8
  %8 = alloca i32, align 4
  %9 = alloca i32, align 4
  %10 = alloca ptr, align 8
  %11 = alloca ptr, align 8
  %12 = alloca i64, align 8
  %13 = alloca ptr, align 8
  store ptr %0, ptr %5, align 8, !tbaa !4
  store ptr %1, ptr %6, align 8, !tbaa !4
  store ptr %2, ptr %7, align 8, !tbaa !4
  %14 = load ptr, ptr %7, align 8, !tbaa !4
  %15 = icmp eq ptr %14, null
  br i1 %15, label %21, label %16

16:                                               ; preds = %3
  %17 = load ptr, ptr %7, align 8, !tbaa !4
  %18 = call i32 @_PyArg_NoKeywords(ptr noundef @.str.23, ptr noundef %17)
  %19 = icmp ne i32 %18, 0
  br i1 %19, label %21, label %20

20:                                               ; preds = %16
  store ptr null, ptr %4, align 8
  br label %110

21:                                               ; preds = %16, %3
  call void @llvm.lifetime.start.p0(i64 4, ptr %8) #6
  %22 = load ptr, ptr %6, align 8, !tbaa !4
  %23 = call i32 (ptr, ptr, ...) @PyArg_ParseTuple(ptr noundef %22, ptr noundef @.str.24, ptr noundef %8)
  %24 = icmp ne i32 %23, 0
  br i1 %24, label %26, label %25

25:                                               ; preds = %21
  store ptr null, ptr %4, align 8
  store i32 1, ptr %9, align 4
  br label %109

26:                                               ; preds = %21
  call void @llvm.lifetime.start.p0(i64 8, ptr %10) #6
  %27 = load ptr, ptr %5, align 8, !tbaa !4
  %28 = getelementptr inbounds nuw %struct.constevaluatorobject, ptr %27, i32 0, i32 1
  %29 = load ptr, ptr %28, align 8, !tbaa !160
  store ptr %29, ptr %10, align 8, !tbaa !4
  %30 = load i32, ptr %8, align 4, !tbaa !13
  %31 = icmp eq i32 %30, 4
  br i1 %31, label %32, label %105

32:                                               ; preds = %26
  call void @llvm.lifetime.start.p0(i64 8, ptr %11) #6
  %33 = call ptr @PyUnicodeWriter_Create(i64 noundef 5)
  store ptr %33, ptr %11, align 8, !tbaa !11
  %34 = load ptr, ptr %11, align 8, !tbaa !11
  %35 = icmp eq ptr %34, null
  br i1 %35, label %36, label %37

36:                                               ; preds = %32
  store ptr null, ptr %4, align 8
  store i32 1, ptr %9, align 4
  br label %104

37:                                               ; preds = %32
  %38 = load ptr, ptr %10, align 8, !tbaa !4
  %39 = call ptr @_Py_TYPE(ptr noundef %38)
  %40 = call i32 @PyType_HasFeature(ptr noundef %39, i64 noundef 67108864)
  %41 = icmp ne i32 %40, 0
  br i1 %41, label %42, label %93

42:                                               ; preds = %37
  %43 = load ptr, ptr %11, align 8, !tbaa !11
  %44 = call i32 @PyUnicodeWriter_WriteChar(ptr noundef %43, i32 noundef 40)
  %45 = icmp slt i32 %44, 0
  br i1 %45, label %46, label %48

46:                                               ; preds = %42
  %47 = load ptr, ptr %11, align 8, !tbaa !11
  call void @PyUnicodeWriter_Discard(ptr noundef %47)
  store ptr null, ptr %4, align 8
  store i32 1, ptr %9, align 4
  br label %104

48:                                               ; preds = %42
  call void @llvm.lifetime.start.p0(i64 8, ptr %12) #6
  store i64 0, ptr %12, align 8, !tbaa !15
  br label %49

49:                                               ; preds = %81, %48
  %50 = load i64, ptr %12, align 8, !tbaa !15
  %51 = load ptr, ptr %10, align 8, !tbaa !4
  %52 = call i64 @PyTuple_GET_SIZE(ptr noundef %51)
  %53 = icmp slt i64 %50, %52
  br i1 %53, label %55, label %54

54:                                               ; preds = %49
  store i32 2, ptr %9, align 4
  br label %84

55:                                               ; preds = %49
  call void @llvm.lifetime.start.p0(i64 8, ptr %13) #6
  %56 = load ptr, ptr %10, align 8, !tbaa !4
  %57 = getelementptr inbounds nuw %struct.PyTupleObject, ptr %56, i32 0, i32 1
  %58 = load i64, ptr %12, align 8, !tbaa !15
  %59 = getelementptr [1 x ptr], ptr %57, i64 0, i64 %58
  %60 = load ptr, ptr %59, align 8, !tbaa !4
  store ptr %60, ptr %13, align 8, !tbaa !4
  %61 = load i64, ptr %12, align 8, !tbaa !15
  %62 = icmp sgt i64 %61, 0
  br i1 %62, label %63, label %70

63:                                               ; preds = %55
  %64 = load ptr, ptr %11, align 8, !tbaa !11
  %65 = call i32 @PyUnicodeWriter_WriteUTF8(ptr noundef %64, ptr noundef @.str.25, i64 noundef 2)
  %66 = icmp slt i32 %65, 0
  br i1 %66, label %67, label %69

67:                                               ; preds = %63
  %68 = load ptr, ptr %11, align 8, !tbaa !11
  call void @PyUnicodeWriter_Discard(ptr noundef %68)
  store ptr null, ptr %4, align 8
  store i32 1, ptr %9, align 4
  br label %78

69:                                               ; preds = %63
  br label %70

70:                                               ; preds = %69, %55
  %71 = load ptr, ptr %11, align 8, !tbaa !11
  %72 = load ptr, ptr %13, align 8, !tbaa !4
  %73 = call i32 @_Py_typing_type_repr(ptr noundef %71, ptr noundef %72)
  %74 = icmp slt i32 %73, 0
  br i1 %74, label %75, label %77

75:                                               ; preds = %70
  %76 = load ptr, ptr %11, align 8, !tbaa !11
  call void @PyUnicodeWriter_Discard(ptr noundef %76)
  store ptr null, ptr %4, align 8
  store i32 1, ptr %9, align 4
  br label %78

77:                                               ; preds = %70
  store i32 0, ptr %9, align 4
  br label %78

78:                                               ; preds = %77, %75, %67
  call void @llvm.lifetime.end.p0(i64 8, ptr %13) #6
  %79 = load i32, ptr %9, align 4
  switch i32 %79, label %84 [
    i32 0, label %80
  ]

80:                                               ; preds = %78
  br label %81

81:                                               ; preds = %80
  %82 = load i64, ptr %12, align 8, !tbaa !15
  %83 = add i64 %82, 1
  store i64 %83, ptr %12, align 8, !tbaa !15
  br label %49, !llvm.loop !162

84:                                               ; preds = %78, %54
  call void @llvm.lifetime.end.p0(i64 8, ptr %12) #6
  %85 = load i32, ptr %9, align 4
  switch i32 %85, label %104 [
    i32 2, label %86
  ]

86:                                               ; preds = %84
  %87 = load ptr, ptr %11, align 8, !tbaa !11
  %88 = call i32 @PyUnicodeWriter_WriteChar(ptr noundef %87, i32 noundef 41)
  %89 = icmp slt i32 %88, 0
  br i1 %89, label %90, label %92

90:                                               ; preds = %86
  %91 = load ptr, ptr %11, align 8, !tbaa !11
  call void @PyUnicodeWriter_Discard(ptr noundef %91)
  store ptr null, ptr %4, align 8
  store i32 1, ptr %9, align 4
  br label %104

92:                                               ; preds = %86
  br label %101

93:                                               ; preds = %37
  %94 = load ptr, ptr %11, align 8, !tbaa !11
  %95 = load ptr, ptr %10, align 8, !tbaa !4
  %96 = call i32 @_Py_typing_type_repr(ptr noundef %94, ptr noundef %95)
  %97 = icmp slt i32 %96, 0
  br i1 %97, label %98, label %100

98:                                               ; preds = %93
  %99 = load ptr, ptr %11, align 8, !tbaa !11
  call void @PyUnicodeWriter_Discard(ptr noundef %99)
  store ptr null, ptr %4, align 8
  store i32 1, ptr %9, align 4
  br label %104

100:                                              ; preds = %93
  br label %101

101:                                              ; preds = %100, %92
  %102 = load ptr, ptr %11, align 8, !tbaa !11
  %103 = call ptr @PyUnicodeWriter_Finish(ptr noundef %102)
  store ptr %103, ptr %4, align 8
  store i32 1, ptr %9, align 4
  br label %104

104:                                              ; preds = %101, %98, %90, %84, %46, %36
  call void @llvm.lifetime.end.p0(i64 8, ptr %11) #6
  br label %108

105:                                              ; preds = %26
  %106 = load ptr, ptr %10, align 8, !tbaa !4
  %107 = call ptr @_Py_NewRef(ptr noundef %106)
  store ptr %107, ptr %4, align 8
  store i32 1, ptr %9, align 4
  br label %108

108:                                              ; preds = %105, %104
  call void @llvm.lifetime.end.p0(i64 8, ptr %10) #6
  br label %109

109:                                              ; preds = %108, %25
  call void @llvm.lifetime.end.p0(i64 4, ptr %8) #6
  br label %110

110:                                              ; preds = %109, %20
  %111 = load ptr, ptr %4, align 8
  ret ptr %111
}