; Function Attrs: nounwind uwtable
define internal ptr @constevaluator_call(ptr noundef readonly captures(none) %0, ptr noundef %1, ptr noundef %2) #0 {
  %4 = alloca i32, align 4
  %5 = icmp eq ptr %2, null
  br i1 %5, label %8, label %6

6:                                                ; preds = %3
  %7 = tail call i32 @_PyArg_NoKeywords(ptr noundef nonnull @.str.23, ptr noundef nonnull %2) #8
  %.not = icmp eq i32 %7, 0
  br i1 %.not, label %55, label %8

8:                                                ; preds = %6, %3
  call void @llvm.lifetime.start.p0(i64 4, ptr nonnull %4) #8
  %9 = call i32 (ptr, ptr, ...) @PyArg_ParseTuple(ptr noundef %1, ptr noundef nonnull @.str.24, ptr noundef nonnull %4) #8
  %.not34 = icmp eq i32 %9, 0
  br i1 %.not34, label %.critedge, label %10

10:                                               ; preds = %8
  %11 = getelementptr inbounds nuw i8, ptr %0, i64 16
  %12 = load ptr, ptr %11, align 8, !tbaa !151
  %13 = load i32, ptr %4, align 4, !tbaa !153
  %14 = icmp eq i32 %13, 4
  br i1 %14, label %15, label %50

15:                                               ; preds = %10
  %16 = call ptr @PyUnicodeWriter_Create(i64 noundef 5) #8
  %17 = icmp eq ptr %16, null
  br i1 %17, label %.critedge, label %18

18:                                               ; preds = %15
  %19 = getelementptr i8, ptr %12, i64 8
  %.val = load ptr, ptr %19, align 8, !tbaa !18
  %20 = getelementptr i8, ptr %.val, i64 168
  %.val38 = load i64, ptr %20, align 8, !tbaa !19
  %21 = and i64 %.val38, 67108864
  %.not35 = icmp eq i64 %21, 0
  br i1 %.not35, label %44, label %22

22:                                               ; preds = %18
  %23 = call i32 @PyUnicodeWriter_WriteChar(ptr noundef nonnull %16, i32 noundef 40) #8
  %24 = icmp slt i32 %23, 0
  br i1 %24, label %27, label %.preheader

.preheader:                                       ; preds = %22
  %25 = getelementptr i8, ptr %12, i64 16
  %.val3941 = load i64, ptr %25, align 8, !tbaa !4
  %.not3642 = icmp sgt i64 %.val3941, 0
  br i1 %.not3642, label %.lr.ph, label %.critedge37

.lr.ph:                                           ; preds = %.preheader
  %26 = getelementptr inbounds nuw i8, ptr %12, i64 24
  br label %30

27:                                               ; preds = %22
  call void @PyUnicodeWriter_Discard(ptr noundef nonnull %16) #8
  br label %.critedge

28:                                               ; preds = %37
  %29 = add nuw nsw i64 %.02943, 1
  %.val39 = load i64, ptr %25, align 8, !tbaa !4
  %.not36 = icmp slt i64 %29, %.val39
  br i1 %.not36, label %30, label %.critedge37, !llvm.loop !154

30:                                               ; preds = %.lr.ph, %28
  %.02943 = phi i64 [ 0, %.lr.ph ], [ %29, %28 ]
  %31 = getelementptr [1 x ptr], ptr %26, i64 0, i64 %.02943
  %32 = load ptr, ptr %31, align 8, !tbaa !16
  %.not40 = icmp eq i64 %.02943, 0
  br i1 %.not40, label %37, label %33

33:                                               ; preds = %30
  %34 = call i32 @PyUnicodeWriter_WriteUTF8(ptr noundef nonnull %16, ptr noundef nonnull @.str.25, i64 noundef 2) #8
  %35 = icmp slt i32 %34, 0
  br i1 %35, label %36, label %37

36:                                               ; preds = %33
  call void @PyUnicodeWriter_Discard(ptr noundef nonnull %16) #8
  br label %.critedge

37:                                               ; preds = %33, %30
  %38 = call i32 @_Py_typing_type_repr(ptr noundef nonnull %16, ptr noundef %32)
  %39 = icmp slt i32 %38, 0
  br i1 %39, label %40, label %28

40:                                               ; preds = %37
  call void @PyUnicodeWriter_Discard(ptr noundef nonnull %16) #8
  br label %.critedge

.critedge37:                                      ; preds = %28, %.preheader
  %41 = call i32 @PyUnicodeWriter_WriteChar(ptr noundef nonnull %16, i32 noundef 41) #8
  %42 = icmp slt i32 %41, 0
  br i1 %42, label %43, label %48

43:                                               ; preds = %.critedge37
  call void @PyUnicodeWriter_Discard(ptr noundef nonnull %16) #8
  br label %.critedge

44:                                               ; preds = %18
  %45 = call i32 @_Py_typing_type_repr(ptr noundef nonnull %16, ptr noundef nonnull %12)
  %46 = icmp slt i32 %45, 0
  br i1 %46, label %47, label %48

47:                                               ; preds = %44
  call void @PyUnicodeWriter_Discard(ptr noundef nonnull %16) #8
  br label %.critedge

48:                                               ; preds = %44, %.critedge37
  %49 = call ptr @PyUnicodeWriter_Finish(ptr noundef nonnull %16) #8
  br label %.critedge

50:                                               ; preds = %10
  %51 = load i32, ptr %12, align 8, !tbaa !27
  %52 = icmp slt i32 %51, 0
  br i1 %52, label %.critedge, label %53

53:                                               ; preds = %50
  %54 = add nuw i32 %51, 1
  store i32 %54, ptr %12, align 8, !tbaa !27
  br label %.critedge

.critedge:                                        ; preds = %53, %50, %40, %36, %15, %48, %47, %43, %27, %8
  %.1 = phi ptr [ null, %8 ], [ null, %27 ], [ null, %43 ], [ %49, %48 ], [ null, %47 ], [ null, %15 ], [ null, %36 ], [ null, %40 ], [ %12, %50 ], [ %12, %53 ]
  call void @llvm.lifetime.end.p0(i64 4, ptr nonnull %4) #8
  br label %55

55:                                               ; preds = %6, %.critedge
  %.0 = phi ptr [ %.1, %.critedge ], [ null, %6 ]
  ret ptr %.0
}